target datalayout = "e-m:e-p270:32:32-p271:32:32-p272:64:64-i64:64-i128:128-f80:128-n8:16:32:64-S128"
target triple = "x86_64-pc-linux-gnu"

%struct.attrs_t = type { ptr, i64, i64, i64 }
%struct.strattr_t = type { ptr, ptr }

; Function Attrs: nounwind uwtable
define internal void @free_strattr(ptr %0, ptr %1) #0 {
  %3 = alloca %struct.strattr_t, align 8
  %4 = getelementptr inbounds nuw { ptr, ptr }, ptr %3, i32 0, i32 0
  store ptr %0, ptr %4, align 8
  %5 = getelementptr inbounds nuw { ptr, ptr }, ptr %3, i32 0, i32 1
  store ptr %1, ptr %5, align 8
  %6 = getelementptr inbounds nuw %struct.strattr_t, ptr %3, i32 0, i32 0
  %7 = load ptr, ptr %6, align 8, !tbaa !41
  call void @free(ptr noundef %7) #12
  %8 = getelementptr inbounds nuw %struct.strattr_t, ptr %3, i32 0, i32 1
  %9 = load ptr, ptr %8, align 8, !tbaa !45
  call void @free(ptr noundef %9) #12
  ret void
}

; Function Attrs: inlinehint nounwind uwtable
define internal { ptr, ptr } @attrs_get(ptr noundef %0, i64 noundef %1) #8 {
  %3 = alloca %struct.strattr_t, align 8
  %4 = alloca ptr, align 8
  %5 = alloca i64, align 8
  store ptr %0, ptr %4, align 8, !tbaa !49
  store i64 %1, ptr %5, align 8, !tbaa !23
  %6 = load ptr, ptr %4, align 8, !tbaa !49
  %7 = getelementptr inbounds nuw %struct.attrs_t, ptr %6, i32 0, i32 0
  %8 = load ptr, ptr %7, align 8, !tbaa !59
  %9 = load ptr, ptr %4, align 8, !tbaa !49
  %10 = getelementptr inbounds nuw %struct.attrs_t, ptr %9, i32 0, i32 1
  %11 = load i64, ptr %10, align 8, !tbaa !60
  %12 = load i64, ptr %5, align 8, !tbaa !23
  %13 = add i64 %11, %12
  %14 = load ptr, ptr %4, align 8, !tbaa !49
  %15 = getelementptr inbounds nuw %struct.attrs_t, ptr %14, i32 0, i32 3
  %16 = load i64, ptr %15, align 8, !tbaa !61
  %17 = urem i64 %13, %16
  %18 = getelementptr inbounds nuw %struct.strattr_t, ptr %8, i64 %17
  call void @llvm.memcpy.p0.p0.i64(ptr align 8 %3, ptr align 8 %18, i64 16, i1 false), !tbaa.struct !62
  %19 = load { ptr, ptr }, ptr %3, align 8
  ret { ptr, ptr } %19
}

; Function Attrs: inlinehint nounwind uwtable
define internal void @attrs_clear(ptr noundef %0) #8 {
  %2 = alloca ptr, align 8
  %3 = alloca i64, align 8
  %4 = alloca %struct.strattr_t, align 8
  store ptr %0, ptr %2, align 8, !tbaa !49
  call void @llvm.lifetime.start.p0(i64 8, ptr %3) #12
  store i64 0, ptr %3, align 8, !tbaa !23
  br label %5

5:                                                ; preds = %27, %1
  %6 = load i64, ptr %3, align 8, !tbaa !23
  %7 = load ptr, ptr %2, align 8, !tbaa !49
  %8 = getelementptr inbounds nuw %struct.attrs_t, ptr %7, i32 0, i32 2
  %9 = load i64, ptr %8, align 8, !tbaa !57
  %10 = icmp ult i64 %6, %9
  br i1 %10, label %12, label %11

11:                                               ; preds = %5
  call void @llvm.lifetime.end.p0(i64 8, ptr %3) #12
  br label %30

12:                                               ; preds = %5
  %13 = load ptr, ptr %2, align 8, !tbaa !49
  %14 = load i64, ptr %3, align 8, !tbaa !23
  %15 = call { ptr, ptr } @attrs_get(ptr noundef %13, i64 noundef %14)
  %16 = getelementptr inbounds nuw { ptr, ptr }, ptr %4, i32 0, i32 0
  %17 = extractvalue { ptr, ptr } %15, 0
  store ptr %17, ptr %16, align 8
  %18 = getelementptr inbounds nuw { ptr, ptr }, ptr %4, i32 0, i32 1
  %19 = extractvalue { ptr, ptr } %15, 1
  store ptr %19, ptr %18, align 8
  %20 = getelementptr inbounds nuw { ptr, ptr }, ptr %4, i32 0, i32 0
  %21 = load ptr, ptr %20, align 8
  %22 = getelementptr inbounds nuw { ptr, ptr }, ptr %4, i32 0, i32 1
  %23 = load ptr, ptr %22, align 8
  call void @free_strattr(ptr %21, ptr %23)
  br label %24

24:                                               ; preds = %12
  br label %25

25:                                               ; preds = %24
  br label %26

26:                                               ; preds = %25
  br label %27

27:                                               ; preds = %26
  %28 = load i64, ptr %3, align 8, !tbaa !23
  %29 = add i64 %28, 1
  store i64 %29, ptr %3, align 8, !tbaa !23
  br label %5, !llvm.loop !63

30:                                               ; preds = %11
  %31 = load ptr, ptr %2, align 8, !tbaa !49
  %32 = getelementptr inbounds nuw %struct.attrs_t, ptr %31, i32 0, i32 2
  store i64 0, ptr %32, align 8, !tbaa !57
  %33 = load ptr, ptr %2, align 8, !tbaa !49
  %34 = getelementptr inbounds nuw %struct.attrs_t, ptr %33, i32 0, i32 1
  store i64 0, ptr %34, align 8, !tbaa !60
  ret void
}

; Function Attrs: inlinehint nounwind uwtable
define internal void @attrs_free(ptr noundef %0) #8 {
  %2 = alloca ptr, align 8
  store ptr %0, ptr %2, align 8, !tbaa !49
  %3 = load ptr, ptr %2, align 8, !tbaa !49
  call void @attrs_clear(ptr noundef %3)
  %4 = load ptr, ptr %2, align 8, !tbaa !49
  %5 = getelementptr inbounds nuw %struct.attrs_t, ptr %4, i32 0, i32 0
  %6 = load ptr, ptr %5, align 8, !tbaa !59
  call void @free(ptr noundef %6) #12
  %7 = load ptr, ptr %2, align 8, !tbaa !49
  call void @llvm.memset.p0.i64(ptr align 8 %7, i8 0, i64 32, i1 false)
  ret void
}