; Function Attrs: inlinehint nounwind uwtable
define internal fastcc void @attrs_free(ptr noundef nonnull captures(none) %0) unnamed_addr #11 {
  %2 = getelementptr inbounds nuw i8, ptr %0, i64 16
  %3 = load i64, ptr %2, align 8, !tbaa !38
  %.not.i = icmp eq i64 %3, 0
  br i1 %.not.i, label %attrs_clear.exit, label %.lr.ph.i

.lr.ph.i:                                         ; preds = %1
  %4 = getelementptr inbounds nuw i8, ptr %0, i64 8
  %5 = getelementptr inbounds nuw i8, ptr %0, i64 24
  br label %6

6:                                                ; preds = %6, %.lr.ph.i
  %.06.i = phi i64 [ 0, %.lr.ph.i ], [ %13, %6 ]
  %7 = load ptr, ptr %0, align 8, !tbaa !40
  %8 = load i64, ptr %4, align 8, !tbaa !41
  %9 = add i64 %8, %.06.i
  %10 = load i64, ptr %5, align 8, !tbaa !42
  %11 = urem i64 %9, %10
  %12 = getelementptr inbounds nuw %struct.strattr_t, ptr %7, i64 %11
  %.sroa.0.0.copyload.i.i = load ptr, ptr %12, align 8, !tbaa !8
  %.sroa.2.0..sroa_idx.i.i = getelementptr inbounds nuw i8, ptr %12, i64 8
  %.sroa.2.0.copyload.i.i = load ptr, ptr %.sroa.2.0..sroa_idx.i.i, align 8, !tbaa !8
  tail call void @free(ptr noundef %.sroa.0.0.copyload.i.i) #18
  tail call void @free(ptr noundef %.sroa.2.0.copyload.i.i) #18
  %13 = add nuw i64 %.06.i, 1
  %14 = load i64, ptr %2, align 8, !tbaa !38
  %15 = icmp ult i64 %13, %14
  br i1 %15, label %6, label %attrs_clear.exit, !llvm.loop !43

attrs_clear.exit:                                 ; preds = %6, %1
  %16 = getelementptr inbounds nuw i8, ptr %0, i64 8
  tail call void @llvm.memset.p0.i64(ptr noundef nonnull align 8 dereferenceable(16) %16, i8 0, i64 16, i1 false)
  %17 = load ptr, ptr %0, align 8, !tbaa !40
  tail call void @free(ptr noundef %17) #18
  tail call void @llvm.memset.p0.i64(ptr noundef nonnull align 8 dereferenceable(32) %0, i8 0, i64 32, i1 false)
  ret void
}